target datalayout = "e-m:e-p270:32:32-p271:32:32-p272:64:64-i64:64-i128:128-f80:128-n8:16:32:64-S128"
target triple = "x86_64-pc-linux-gnu"

%struct.ctl_node_s = type { i8 }
%struct.ctl_named_node_s = type { %struct.ctl_node_s, ptr, i64, ptr, ptr }
%struct.ctl_indexed_node_s = type { %struct.ctl_node_s, ptr }

@ctl_initialized = internal global i8 0, align 1
@super_root_node = internal constant [1 x { %struct.ctl_node_s, [7 x i8], ptr, i64, ptr, ptr }] [{ %struct.ctl_node_s, [7 x i8], ptr, i64, ptr, ptr } { %struct.ctl_node_s { i8 1 }, [7 x i8] zeroinitializer, ptr @.str.1, i64 13, ptr @root_node, ptr null }], align 16

; Function Attrs: nounwind uwtable
define internal ptr @ctl_indexed_node(ptr noundef %0) #0 {
  %2 = alloca ptr, align 8
  store ptr %0, ptr %2, align 8, !tbaa !160
  %3 = load ptr, ptr %2, align 8, !tbaa !160
  %4 = getelementptr inbounds nuw %struct.ctl_node_s, ptr %3, i32 0, i32 0
  %5 = load i8, ptr %4, align 1, !tbaa !161, !range !17, !noundef !18
  %6 = trunc i8 %5 to i1
  br i1 %6, label %9, label %7

7:                                                ; preds = %1
  %8 = load ptr, ptr %2, align 8, !tbaa !160
  br label %10

9:                                                ; preds = %1
  br label %10

10:                                               ; preds = %9, %7
  %11 = phi ptr [ %8, %7 ], [ null, %9 ]
  ret ptr %11
}

; Function Attrs: nounwind uwtable
define internal ptr @ctl_named_children(ptr noundef %0, i64 noundef %1) #0 {
  %3 = alloca ptr, align 8
  %4 = alloca i64, align 8
  %5 = alloca ptr, align 8
  store ptr %0, ptr %3, align 8, !tbaa !21
  store i64 %1, ptr %4, align 8, !tbaa !13
  call void @llvm.lifetime.start.p0(i64 8, ptr %5) #13
  %6 = load ptr, ptr %3, align 8, !tbaa !21
  %7 = getelementptr inbounds nuw %struct.ctl_named_node_s, ptr %6, i32 0, i32 3
  %8 = load ptr, ptr %7, align 8, !tbaa !45
  %9 = call ptr @ctl_named_node(ptr noundef %8)
  store ptr %9, ptr %5, align 8, !tbaa !21
  %10 = load ptr, ptr %5, align 8, !tbaa !21
  %11 = icmp ne ptr %10, null
  br i1 %11, label %12, label %16

12:                                               ; preds = %2
  %13 = load ptr, ptr %5, align 8, !tbaa !21
  %14 = load i64, ptr %4, align 8, !tbaa !13
  %15 = getelementptr inbounds nuw %struct.ctl_named_node_s, ptr %13, i64 %14
  br label %17

16:                                               ; preds = %2
  br label %17

17:                                               ; preds = %16, %12
  %18 = phi ptr [ %15, %12 ], [ null, %16 ]
  call void @llvm.lifetime.end.p0(i64 8, ptr %5) #13
  ret ptr %18
}

; Function Attrs: nounwind uwtable
define internal ptr @ctl_named_node(ptr noundef %0) #0 {
  %2 = alloca ptr, align 8
  store ptr %0, ptr %2, align 8, !tbaa !160
  %3 = load ptr, ptr %2, align 8, !tbaa !160
  %4 = getelementptr inbounds nuw %struct.ctl_node_s, ptr %3, i32 0, i32 0
  %5 = load i8, ptr %4, align 1, !tbaa !161, !range !17, !noundef !18
  %6 = trunc i8 %5 to i1
  br i1 %6, label %7, label %9

7:                                                ; preds = %1
  %8 = load ptr, ptr %2, align 8, !tbaa !160
  br label %10

9:                                                ; preds = %1
  br label %10

10:                                               ; preds = %9, %7
  %11 = phi ptr [ %8, %7 ], [ null, %9 ]
  ret ptr %11
}

; Function Attrs: nounwind uwtable
define internal i32 @ctl_lookupbymib(ptr noundef %0, ptr noundef %1, ptr noundef %2, i64 noundef %3) #0 {
  %5 = alloca i32, align 4
  %6 = alloca ptr, align 8
  %7 = alloca ptr, align 8
  %8 = alloca ptr, align 8
  %9 = alloca i64, align 8
  %10 = alloca i32, align 4
  %11 = alloca ptr, align 8
  %12 = alloca i64, align 8
  %13 = alloca i32, align 4
  %14 = alloca ptr, align 8
  store ptr %0, ptr %6, align 8, !tbaa !27
  store ptr %1, ptr %7, align 8, !tbaa !43
  store ptr %2, ptr %8, align 8, !tbaa !11
  store i64 %3, ptr %9, align 8, !tbaa !13
  call void @llvm.lifetime.start.p0(i64 4, ptr %10) #13
  call void @llvm.lifetime.start.p0(i64 8, ptr %11) #13
  store ptr @super_root_node, ptr %11, align 8, !tbaa !21
  call void @llvm.lifetime.start.p0(i64 8, ptr %12) #13
  store i64 0, ptr %12, align 8, !tbaa !13
  br label %15

15:                                               ; preds = %73, %4
  %16 = load i64, ptr %12, align 8, !tbaa !13
  %17 = load i64, ptr %9, align 8, !tbaa !13
  %18 = icmp ult i64 %16, %17
  br i1 %18, label %20, label %19

19:                                               ; preds = %15
  store i32 2, ptr %13, align 4
  br label %76

20:                                               ; preds = %15
  br label %21

21:                                               ; preds = %20
  br label %22

22:                                               ; preds = %21
  br label %23

23:                                               ; preds = %22
  br label %24

24:                                               ; preds = %23
  br label %25

25:                                               ; preds = %24
  br label %26

26:                                               ; preds = %25
  %27 = load ptr, ptr %11, align 8, !tbaa !21
  %28 = getelementptr inbounds nuw %struct.ctl_named_node_s, ptr %27, i32 0, i32 3
  %29 = load ptr, ptr %28, align 8, !tbaa !45
  %30 = call ptr @ctl_named_node(ptr noundef %29)
  %31 = icmp ne ptr %30, null
  br i1 %31, label %32, label %49

32:                                               ; preds = %26
  %33 = load ptr, ptr %11, align 8, !tbaa !21
  %34 = getelementptr inbounds nuw %struct.ctl_named_node_s, ptr %33, i32 0, i32 2
  %35 = load i64, ptr %34, align 8, !tbaa !46
  %36 = load ptr, ptr %8, align 8, !tbaa !11
  %37 = load i64, ptr %12, align 8, !tbaa !13
  %38 = getelementptr inbounds nuw i64, ptr %36, i64 %37
  %39 = load i64, ptr %38, align 8, !tbaa !13
  %40 = icmp ule i64 %35, %39
  br i1 %40, label %41, label %42

41:                                               ; preds = %32
  store i32 2, ptr %10, align 4, !tbaa !19
  store i32 9, ptr %13, align 4
  br label %76

42:                                               ; preds = %32
  %43 = load ptr, ptr %11, align 8, !tbaa !21
  %44 = load ptr, ptr %8, align 8, !tbaa !11
  %45 = load i64, ptr %12, align 8, !tbaa !13
  %46 = getelementptr inbounds nuw i64, ptr %44, i64 %45
  %47 = load i64, ptr %46, align 8, !tbaa !13
  %48 = call ptr @ctl_named_children(ptr noundef %43, i64 noundef %47)
  store ptr %48, ptr %11, align 8, !tbaa !21
  br label %72

49:                                               ; preds = %26
  call void @llvm.lifetime.start.p0(i64 8, ptr %14) #13
  %50 = load ptr, ptr %11, align 8, !tbaa !21
  %51 = getelementptr inbounds nuw %struct.ctl_named_node_s, ptr %50, i32 0, i32 3
  %52 = load ptr, ptr %51, align 8, !tbaa !45
  %53 = call ptr @ctl_indexed_node(ptr noundef %52)
  store ptr %53, ptr %14, align 8, !tbaa !48
  %54 = load ptr, ptr %14, align 8, !tbaa !48
  %55 = getelementptr inbounds nuw %struct.ctl_indexed_node_s, ptr %54, i32 0, i32 1
  %56 = load ptr, ptr %55, align 8, !tbaa !50
  %57 = load ptr, ptr %6, align 8, !tbaa !27
  %58 = load ptr, ptr %8, align 8, !tbaa !11
  %59 = load i64, ptr %9, align 8, !tbaa !13
  %60 = load ptr, ptr %8, align 8, !tbaa !11
  %61 = load i64, ptr %12, align 8, !tbaa !13
  %62 = getelementptr inbounds nuw i64, ptr %60, i64 %61
  %63 = load i64, ptr %62, align 8, !tbaa !13
  %64 = call ptr %56(ptr noundef %57, ptr noundef %58, i64 noundef %59, i64 noundef %63)
  store ptr %64, ptr %11, align 8, !tbaa !21
  %65 = load ptr, ptr %11, align 8, !tbaa !21
  %66 = icmp eq ptr %65, null
  br i1 %66, label %67, label %68

67:                                               ; preds = %49
  store i32 2, ptr %10, align 4, !tbaa !19
  store i32 9, ptr %13, align 4
  br label %69

68:                                               ; preds = %49
  store i32 0, ptr %13, align 4
  br label %69

69:                                               ; preds = %67, %68
  call void @llvm.lifetime.end.p0(i64 8, ptr %14) #13
  %70 = load i32, ptr %13, align 4
  switch i32 %70, label %76 [
    i32 0, label %71
  ]

71:                                               ; preds = %69
  br label %72

72:                                               ; preds = %71, %42
  br label %73

73:                                               ; preds = %72
  %74 = load i64, ptr %12, align 8, !tbaa !13
  %75 = add i64 %74, 1
  store i64 %75, ptr %12, align 8, !tbaa !13
  br label %15

76:                                               ; preds = %41, %69, %19
  call void @llvm.lifetime.end.p0(i64 8, ptr %12) #13
  %77 = load i32, ptr %13, align 4
  switch i32 %77, label %86 [
    i32 2, label %78
    i32 9, label %84
  ]

78:                                               ; preds = %76
  br label %79

79:                                               ; preds = %78
  br label %80

80:                                               ; preds = %79
  br label %81

81:                                               ; preds = %80
  %82 = load ptr, ptr %11, align 8, !tbaa !21
  %83 = load ptr, ptr %7, align 8, !tbaa !43
  store ptr %82, ptr %83, align 8, !tbaa !21
  store i32 0, ptr %10, align 4, !tbaa !19
  br label %84

84:                                               ; preds = %81, %76
  %85 = load i32, ptr %10, align 4, !tbaa !19
  store i32 %85, ptr %5, align 4
  store i32 1, ptr %13, align 4
  br label %86

86:                                               ; preds = %84, %76
  call void @llvm.lifetime.end.p0(i64 8, ptr %11) #13
  call void @llvm.lifetime.end.p0(i64 4, ptr %10) #13
  %87 = load i32, ptr %5, align 4
  ret i32 %87
}

; Function Attrs: alwaysinline nounwind uwtable
define internal ptr @tsd_tsdn(ptr noundef %0) #2 {
  %2 = alloca ptr, align 8
  store ptr %0, ptr %2, align 8, !tbaa !3
  %3 = load ptr, ptr %2, align 8, !tbaa !3
  ret ptr %3
}

; Function Attrs: nounwind uwtable
define i32 @duckdb_je_ctl_bymibname(ptr noundef %0, ptr noundef %1, i64 noundef %2, ptr noundef %3, ptr noundef %4, ptr noundef %5, ptr noundef %6, ptr noundef %7, i64 noundef %8) #0 {
  %10 = alloca ptr, align 8
  %11 = alloca ptr, align 8
  %12 = alloca i64, align 8
  %13 = alloca ptr, align 8
  %14 = alloca ptr, align 8
  %15 = alloca ptr, align 8
  %16 = alloca ptr, align 8
  %17 = alloca ptr, align 8
  %18 = alloca i64, align 8
  %19 = alloca i32, align 4
  %20 = alloca ptr, align 8
  store ptr %0, ptr %10, align 8, !tbaa !3
  store ptr %1, ptr %11, align 8, !tbaa !11
  store i64 %2, ptr %12, align 8, !tbaa !13
  store ptr %3, ptr %13, align 8, !tbaa !8
  store ptr %4, ptr %14, align 8, !tbaa !11
  store ptr %5, ptr %15, align 8, !tbaa !10
  store ptr %6, ptr %16, align 8, !tbaa !11
  store ptr %7, ptr %17, align 8, !tbaa !10
  store i64 %8, ptr %18, align 8, !tbaa !13
  call void @llvm.lifetime.start.p0(i64 4, ptr %19) #13
  call void @llvm.lifetime.start.p0(i64 8, ptr %20) #13
  %21 = load i8, ptr @ctl_initialized, align 1, !tbaa !15, !range !17, !noundef !18
  %22 = trunc i8 %21 to i1
  br i1 %22, label %27, label %23

23:                                               ; preds = %9
  %24 = load ptr, ptr %10, align 8, !tbaa !3
  %25 = call zeroext i1 @ctl_init(ptr noundef %24)
  br i1 %25, label %26, label %27

26:                                               ; preds = %23
  store i32 11, ptr %19, align 4, !tbaa !19
  br label %95

27:                                               ; preds = %23, %9
  %28 = load ptr, ptr %10, align 8, !tbaa !3
  %29 = call ptr @tsd_tsdn(ptr noundef %28)
  %30 = load ptr, ptr %11, align 8, !tbaa !11
  %31 = load i64, ptr %12, align 8, !tbaa !13
  %32 = call i32 @ctl_lookupbymib(ptr noundef %29, ptr noundef %20, ptr noundef %30, i64 noundef %31)
  store i32 %32, ptr %19, align 4, !tbaa !19
  %33 = load i32, ptr %19, align 4, !tbaa !19
  %34 = icmp ne i32 %33, 0
  br i1 %34, label %35, label %36

35:                                               ; preds = %27
  br label %95

36:                                               ; preds = %27
  %37 = load ptr, ptr %20, align 8, !tbaa !21
  %38 = icmp eq ptr %37, null
  br i1 %38, label %44, label %39

39:                                               ; preds = %36
  %40 = load ptr, ptr %20, align 8, !tbaa !21
  %41 = getelementptr inbounds nuw %struct.ctl_named_node_s, ptr %40, i32 0, i32 4
  %42 = load ptr, ptr %41, align 8, !tbaa !23
  %43 = icmp ne ptr %42, null
  br i1 %43, label %44, label %45

44:                                               ; preds = %39, %36
  store i32 2, ptr %19, align 4, !tbaa !19
  br label %95

45:                                               ; preds = %39
  br label %46

46:                                               ; preds = %45
  br label %47

47:                                               ; preds = %46
  br label %48

48:                                               ; preds = %47
  br label %49

49:                                               ; preds = %48
  br label %50

50:                                               ; preds = %49
  br label %51

51:                                               ; preds = %50
  %52 = load i64, ptr %12, align 8, !tbaa !13
  %53 = load ptr, ptr %14, align 8, !tbaa !11
  %54 = load i64, ptr %53, align 8, !tbaa !13
  %55 = sub i64 %54, %52
  store i64 %55, ptr %53, align 8, !tbaa !13
  %56 = load ptr, ptr %10, align 8, !tbaa !3
  %57 = call ptr @tsd_tsdn(ptr noundef %56)
  %58 = load ptr, ptr %20, align 8, !tbaa !21
  %59 = load ptr, ptr %13, align 8, !tbaa !8
  %60 = load ptr, ptr %11, align 8, !tbaa !11
  %61 = load i64, ptr %12, align 8, !tbaa !13
  %62 = getelementptr inbounds nuw i64, ptr %60, i64 %61
  %63 = load ptr, ptr %14, align 8, !tbaa !11
  %64 = call i32 @ctl_lookup(ptr noundef %57, ptr noundef %58, ptr noundef %59, ptr noundef %20, ptr noundef %62, ptr noundef %63)
  store i32 %64, ptr %19, align 4, !tbaa !19
  %65 = load i64, ptr %12, align 8, !tbaa !13
  %66 = load ptr, ptr %14, align 8, !tbaa !11
  %67 = load i64, ptr %66, align 8, !tbaa !13
  %68 = add i64 %67, %65
  store i64 %68, ptr %66, align 8, !tbaa !13
  %69 = load i32, ptr %19, align 4, !tbaa !19
  %70 = icmp ne i32 %69, 0
  br i1 %70, label %71, label %72

71:                                               ; preds = %51
  br label %95

72:                                               ; preds = %51
  %73 = load ptr, ptr %20, align 8, !tbaa !21
  %74 = icmp ne ptr %73, null
  br i1 %74, label %75, label %93

75:                                               ; preds = %72
  %76 = load ptr, ptr %20, align 8, !tbaa !21
  %77 = getelementptr inbounds nuw %struct.ctl_named_node_s, ptr %76, i32 0, i32 4
  %78 = load ptr, ptr %77, align 8, !tbaa !23
  %79 = icmp ne ptr %78, null
  br i1 %79, label %80, label %93

80:                                               ; preds = %75
  %81 = load ptr, ptr %20, align 8, !tbaa !21
  %82 = getelementptr inbounds nuw %struct.ctl_named_node_s, ptr %81, i32 0, i32 4
  %83 = load ptr, ptr %82, align 8, !tbaa !23
  %84 = load ptr, ptr %10, align 8, !tbaa !3
  %85 = load ptr, ptr %11, align 8, !tbaa !11
  %86 = load ptr, ptr %14, align 8, !tbaa !11
  %87 = load i64, ptr %86, align 8, !tbaa !13
  %88 = load ptr, ptr %15, align 8, !tbaa !10
  %89 = load ptr, ptr %16, align 8, !tbaa !11
  %90 = load ptr, ptr %17, align 8, !tbaa !10
  %91 = load i64, ptr %18, align 8, !tbaa !13
  %92 = call i32 %83(ptr noundef %84, ptr noundef %85, i64 noundef %87, ptr noundef %88, ptr noundef %89, ptr noundef %90, i64 noundef %91)
  store i32 %92, ptr %19, align 4, !tbaa !19
  br label %94

93:                                               ; preds = %75, %72
  store i32 2, ptr %19, align 4, !tbaa !19
  br label %94

94:                                               ; preds = %93, %80
  br label %95

95:                                               ; preds = %94, %71, %44, %35, %26
  %96 = load i32, ptr %19, align 4, !tbaa !19
  call void @llvm.lifetime.end.p0(i64 8, ptr %20) #13
  call void @llvm.lifetime.end.p0(i64 4, ptr %19) #13
  ret i32 %96
}