; Function Attrs: nounwind uwtable
define i32 @duckdb_je_ctl_bymibname(ptr noundef %0, ptr noundef %1, i64 noundef %2, ptr noundef %3, ptr noundef captures(none) %4, ptr noundef %5, ptr noundef %6, ptr noundef %7, i64 noundef %8) local_unnamed_addr #0 {
  %10 = alloca ptr, align 8
  call void @llvm.lifetime.start.p0(i64 8, ptr nonnull %10) #14
  %.b27 = load i1, ptr @ctl_initialized, align 1
  br i1 %.b27, label %13, label %11

11:                                               ; preds = %9
  %12 = tail call fastcc zeroext i1 @ctl_init(ptr noundef %0)
  br i1 %12, label %ctl_lookupbymib.exit.thread, label %13

13:                                               ; preds = %11, %9
  %.not.i = icmp eq i64 %2, 0
  br i1 %.not.i, label %.thread, label %.lr.ph.i

.thread:                                          ; preds = %13
  store ptr @super_root_node, ptr %10, align 8, !tbaa !7
  br label %33

.lr.ph.i:                                         ; preds = %13, %29
  %.02440.i = phi i64 [ %30, %29 ], [ 0, %13 ]
  %.02539.i = phi ptr [ %.2.i, %29 ], [ @super_root_node, %13 ]
  %14 = getelementptr inbounds nuw i8, ptr %.02539.i, i64 24
  %15 = load ptr, ptr %14, align 8, !tbaa !43
  %16 = load i8, ptr %15, align 1, !tbaa !44, !range !45, !noundef !46
  %17 = trunc nuw i8 %16 to i1
  %18 = getelementptr inbounds nuw i64, ptr %1, i64 %.02440.i
  %19 = load i64, ptr %18, align 8, !tbaa !3
  br i1 %17, label %20, label %25

20:                                               ; preds = %.lr.ph.i
  %21 = getelementptr inbounds nuw i8, ptr %.02539.i, i64 16
  %22 = load i64, ptr %21, align 8, !tbaa !47
  %.not33.i = icmp ugt i64 %22, %19
  br i1 %.not33.i, label %23, label %ctl_lookupbymib.exit.thread

23:                                               ; preds = %20
  %24 = getelementptr inbounds nuw %struct.ctl_named_node_s, ptr %15, i64 %19
  br label %29

25:                                               ; preds = %.lr.ph.i
  %26 = getelementptr inbounds nuw i8, ptr %15, i64 8
  %27 = load ptr, ptr %26, align 8, !tbaa !49
  %28 = tail call ptr %27(ptr noundef %0, ptr noundef nonnull %1, i64 noundef %2, i64 noundef %19) #14
  %.not32.i = icmp eq ptr %28, null
  br i1 %.not32.i, label %ctl_lookupbymib.exit.thread, label %29

29:                                               ; preds = %25, %23
  %.2.i = phi ptr [ %24, %23 ], [ %28, %25 ]
  %30 = add nuw i64 %.02440.i, 1
  %exitcond.not.i = icmp eq i64 %30, %2
  br i1 %exitcond.not.i, label %31, label %.lr.ph.i

31:                                               ; preds = %29
  store ptr %.2.i, ptr %10, align 8, !tbaa !7
  %32 = icmp eq ptr %.2.i, null
  br i1 %32, label %ctl_lookupbymib.exit.thread, label %33

33:                                               ; preds = %.thread, %31
  %.025.lcssa.i35 = phi ptr [ @super_root_node, %.thread ], [ %.2.i, %31 ]
  %34 = getelementptr inbounds nuw i8, ptr %.025.lcssa.i35, i64 32
  %35 = load ptr, ptr %34, align 8, !tbaa !10
  %.not28 = icmp eq ptr %35, null
  br i1 %.not28, label %36, label %ctl_lookupbymib.exit.thread

36:                                               ; preds = %33
  %37 = load i64, ptr %4, align 8, !tbaa !3
  %38 = sub i64 %37, %2
  store i64 %38, ptr %4, align 8, !tbaa !3
  %39 = getelementptr inbounds nuw i64, ptr %1, i64 %2
  %40 = call fastcc i32 @ctl_lookup(ptr noundef %0, ptr noundef nonnull %.025.lcssa.i35, ptr noundef %3, ptr noundef nonnull %10, ptr noundef %39, ptr noundef nonnull %4)
  %41 = load i64, ptr %4, align 8, !tbaa !3
  %42 = add i64 %41, %2
  store i64 %42, ptr %4, align 8, !tbaa !3
  %.not29 = icmp eq i32 %40, 0
  br i1 %.not29, label %43, label %ctl_lookupbymib.exit.thread

43:                                               ; preds = %36
  %44 = load ptr, ptr %10, align 8, !tbaa !7
  %.not30 = icmp eq ptr %44, null
  br i1 %.not30, label %ctl_lookupbymib.exit.thread, label %45

45:                                               ; preds = %43
  %46 = getelementptr inbounds nuw i8, ptr %44, i64 32
  %47 = load ptr, ptr %46, align 8, !tbaa !10
  %.not31 = icmp eq ptr %47, null
  br i1 %.not31, label %ctl_lookupbymib.exit.thread, label %48

48:                                               ; preds = %45
  %49 = call i32 %47(ptr noundef %0, ptr noundef %1, i64 noundef %42, ptr noundef %5, ptr noundef %6, ptr noundef %7, i64 noundef %8) #14
  br label %ctl_lookupbymib.exit.thread

ctl_lookupbymib.exit.thread:                      ; preds = %20, %25, %43, %45, %31, %33, %11, %48, %36
  %.0 = phi i32 [ %40, %36 ], [ %49, %48 ], [ 11, %11 ], [ 2, %33 ], [ 2, %31 ], [ 2, %45 ], [ 2, %43 ], [ 2, %25 ], [ 2, %20 ]
  call void @llvm.lifetime.end.p0(i64 8, ptr nonnull %10) #14
  ret i32 %.0
}